target datalayout = "e-m:e-p270:32:32-p271:32:32-p272:64:64-i64:64-i128:128-f80:128-n8:16:32:64-S128"
target triple = "x86_64-pc-linux-gnu"

%"class.marisa::grimoire::io::Mapper" = type <{ ptr, ptr, i64, i64, i32, [4 x i8] }>

; Function Attrs: mustprogress nounwind uwtable
define void @_ZN6marisa8grimoire2io6MapperC2Ev(ptr noundef nonnull align 8 dereferenceable(36) %0) unnamed_addr #0 align 2 {
  %2 = alloca ptr, align 8
  store ptr %0, ptr %2, align 8, !tbaa !3
  %3 = load ptr, ptr %2, align 8
  %4 = getelementptr inbounds nuw %"class.marisa::grimoire::io::Mapper", ptr %3, i32 0, i32 0
  store ptr null, ptr %4, align 8, !tbaa !8
  %5 = getelementptr inbounds nuw %"class.marisa::grimoire::io::Mapper", ptr %3, i32 0, i32 1
  store ptr inttoptr (i64 -1 to ptr), ptr %5, align 8, !tbaa !12
  %6 = getelementptr inbounds nuw %"class.marisa::grimoire::io::Mapper", ptr %3, i32 0, i32 2
  store i64 0, ptr %6, align 8, !tbaa !13
  %7 = getelementptr inbounds nuw %"class.marisa::grimoire::io::Mapper", ptr %3, i32 0, i32 3
  store i64 0, ptr %7, align 8, !tbaa !14
  %8 = getelementptr inbounds nuw %"class.marisa::grimoire::io::Mapper", ptr %3, i32 0, i32 4
  store i32 -1, ptr %8, align 8, !tbaa !15
  ret void
}